target datalayout = "e-m:e-p270:32:32-p271:32:32-p272:64:64-i64:64-i128:128-f80:128-n8:16:32:64-S128"
target triple = "x86_64-pc-linux-gnu"

%struct._header_field_info = type { ptr, ptr, i32, i32, ptr, i64, ptr, i32, i32, i32, i32, ptr }
%struct._proto_node = type { ptr, ptr, ptr, ptr, ptr, ptr, ptr }
%struct.tree_data_t = type { ptr, i8, i8, i32, ptr, i32, i32 }
%struct.field_info = type { ptr, i32, i32, i32, i32, i32, i32, ptr, ptr, ptr, i32, i32 }
%struct._packet_info = type { ptr, ptr, i32, i32, %struct.nstime_t, %struct.nstime_t, %struct.nstime_t, i8, ptr, ptr, ptr, ptr, %struct._address, %struct._address, %struct._address, %struct._address, %struct._address, %struct._address, i32, ptr, i8, [3 x i8], %struct.anon, i32, i32, i32, i32, ptr, i8, ptr, ptr, i16, i16, i32, i32, i16, i32, i32, ptr, ptr, ptr, i8, i8, i16, i16, i16, i32, i16, i16, ptr, ptr, ptr, ptr, ptr, i32, i32 }
%struct.nstime_t = type { i64, i32 }
%struct._address = type { i32, i32, ptr, ptr }
%struct.anon = type { i8, [3 x i8] }
%struct._item_label_t = type { [240 x i8], i64, i64 }

@.str.1 = private unnamed_addr constant [13 x i8] c"epan/proto.c\00", align 1
@.str.62 = private unnamed_addr constant [29 x i8] c"%s:%u: failed assertion \22%s\22\00", align 1
@.str.85 = private unnamed_addr constant [3 x i8] c": \00", align 1
@.str.283 = private unnamed_addr constant [3 x i8] c"fi\00", align 1
@mark_truncated.trunc_str = internal constant [7 x i8] c" [\E2\80\A6]\00", align 1

; Function Attrs: alwaysinline nounwind
define internal ptr @memcpy.inline(ptr noalias %0, ptr noalias %1, i64 %2) #22 {
  %4 = alloca ptr, align 8
  %5 = alloca ptr, align 8
  %6 = alloca i64, align 8
  store ptr %0, ptr %4, align 8
  store ptr %1, ptr %5, align 8
  store i64 %2, ptr %6, align 8
  %7 = load ptr, ptr %4, align 8
  %8 = load ptr, ptr %5, align 8
  %9 = load i64, ptr %6, align 8
  %10 = load ptr, ptr %4, align 8
  %11 = call i64 @llvm.objectsize.i64.p0(ptr %10, i1 false, i1 true, i1 true)
  %12 = call ptr @__memcpy_chk(ptr noundef %7, ptr noundef %8, i64 noundef %9, i64 noundef %11) #24
  ret ptr %12
}

; Function Attrs: alwaysinline nounwind
define internal ptr @memmove.inline(ptr %0, ptr %1, i64 %2) #22 {
  %4 = alloca ptr, align 8
  %5 = alloca ptr, align 8
  %6 = alloca i64, align 8
  store ptr %0, ptr %4, align 8
  store ptr %1, ptr %5, align 8
  store i64 %2, ptr %6, align 8
  %7 = load ptr, ptr %4, align 8
  %8 = load ptr, ptr %5, align 8
  %9 = load i64, ptr %6, align 8
  %10 = load ptr, ptr %4, align 8
  %11 = call i64 @llvm.objectsize.i64.p0(ptr %10, i1 false, i1 true, i1 true)
  %12 = call ptr @__memmove_chk(ptr noundef %7, ptr noundef %8, i64 noundef %9, i64 noundef %11) #24
  ret ptr %12
}

; Function Attrs: null_pointer_is_valid sspstrong uwtable
define internal void @mark_truncated(ptr noundef %0, i64 noundef %1, i64 noundef %2, ptr noundef %3) #0 {
  %5 = alloca ptr, align 8
  %6 = alloca i64, align 8
  %7 = alloca i64, align 8
  %8 = alloca ptr, align 8
  %9 = alloca i64, align 8
  %10 = alloca ptr, align 8
  store ptr %0, ptr %5, align 8
  store i64 %1, ptr %6, align 8
  store i64 %2, ptr %7, align 8
  store ptr %3, ptr %8, align 8
  call void @llvm.lifetime.start.p0(i64 8, ptr %9) #24
  store i64 6, ptr %9, align 8
  call void @llvm.lifetime.start.p0(i64 8, ptr %10) #24
  %11 = load i64, ptr %6, align 8
  %12 = load i64, ptr %7, align 8
  %13 = sub i64 %12, 6
  %14 = icmp ult i64 %11, %13
  br i1 %14, label %15, label %56

15:                                               ; preds = %4
  %16 = load ptr, ptr %5, align 8
  %17 = load i64, ptr %6, align 8
  %18 = getelementptr i8, ptr %16, i64 %17
  %19 = getelementptr i8, ptr %18, i64 6
  %20 = load ptr, ptr %5, align 8
  %21 = load i64, ptr %6, align 8
  %22 = getelementptr i8, ptr %20, i64 %21
  %23 = load i64, ptr %7, align 8
  %24 = load i64, ptr %6, align 8
  %25 = sub i64 %23, %24
  %26 = sub i64 %25, 6
  %27 = call ptr @memmove.inline(ptr noundef %19, ptr noundef %22, i64 noundef %26) #24
  %28 = load ptr, ptr %5, align 8
  %29 = load i64, ptr %6, align 8
  %30 = getelementptr i8, ptr %28, i64 %29
  %31 = call ptr @memcpy.inline(ptr noundef %30, ptr noundef @mark_truncated.trunc_str, i64 noundef 6) #24
  %32 = load ptr, ptr %5, align 8
  %33 = load i64, ptr %7, align 8
  %34 = getelementptr i8, ptr %32, i64 %33
  %35 = call ptr @g_utf8_prev_char(ptr noundef %34) #29
  store ptr %35, ptr %10, align 8
  %36 = load ptr, ptr %10, align 8
  store i8 0, ptr %36, align 1
  %37 = load ptr, ptr %8, align 8
  %38 = icmp ne ptr %37, null
  br i1 %38, label %39, label %55

39:                                               ; preds = %15
  %40 = load ptr, ptr %8, align 8
  %41 = load i64, ptr %40, align 8
  %42 = icmp ugt i64 %41, 0
  br i1 %42, label %43, label %55

43:                                               ; preds = %39
  %44 = load i64, ptr %6, align 8
  %45 = icmp eq i64 %44, 0
  br i1 %45, label %46, label %50

46:                                               ; preds = %43
  %47 = load ptr, ptr %8, align 8
  %48 = load i64, ptr %47, align 8
  %49 = add i64 %48, 6
  store i64 %49, ptr %47, align 8
  br label %54

50:                                               ; preds = %43
  %51 = load ptr, ptr %8, align 8
  %52 = load i64, ptr %51, align 8
  %53 = sub i64 %52, 1
  store i64 %53, ptr %51, align 8
  br label %54

54:                                               ; preds = %50, %46
  br label %55

55:                                               ; preds = %54, %39, %15
  br label %69

56:                                               ; preds = %4
  %57 = load i64, ptr %6, align 8
  %58 = load i64, ptr %7, align 8
  %59 = icmp ult i64 %57, %58
  br i1 %59, label %60, label %68

60:                                               ; preds = %56
  %61 = load ptr, ptr %5, align 8
  %62 = load i64, ptr %6, align 8
  %63 = getelementptr i8, ptr %61, i64 %62
  %64 = load i64, ptr %7, align 8
  %65 = load i64, ptr %6, align 8
  %66 = sub i64 %64, %65
  %67 = call i64 @g_strlcpy(ptr noundef %63, ptr noundef @mark_truncated.trunc_str, i64 noundef %66)
  br label %68

68:                                               ; preds = %60, %56
  br label %69

69:                                               ; preds = %68, %55
  call void @llvm.lifetime.end.p0(i64 8, ptr %10) #24
  call void @llvm.lifetime.end.p0(i64 8, ptr %9) #24
  ret void
}

; Function Attrs: null_pointer_is_valid sspstrong uwtable
define internal void @label_mark_truncated(ptr noundef %0, i64 noundef %1, ptr noundef %2) #0 {
  %4 = alloca ptr, align 8
  %5 = alloca i64, align 8
  %6 = alloca ptr, align 8
  store ptr %0, ptr %4, align 8
  store i64 %1, ptr %5, align 8
  store ptr %2, ptr %6, align 8
  %7 = load ptr, ptr %4, align 8
  %8 = load i64, ptr %5, align 8
  %9 = load ptr, ptr %6, align 8
  call void @mark_truncated(ptr noundef %7, i64 noundef %8, i64 noundef 240, ptr noundef %9)
  ret void
}

; Function Attrs: nounwind null_pointer_is_valid sspstrong uwtable
define internal i64 @proto_find_value_pos(ptr noundef %0, ptr noundef %1) #3 {
  %3 = alloca i64, align 8
  %4 = alloca ptr, align 8
  %5 = alloca ptr, align 8
  %6 = alloca ptr, align 8
  %7 = alloca i32, align 4
  store ptr %0, ptr %4, align 8
  store ptr %1, ptr %5, align 8
  %8 = load ptr, ptr %4, align 8
  %9 = getelementptr inbounds nuw %struct._header_field_info, ptr %8, i32 0, i32 3
  %10 = load i32, ptr %9, align 4
  %11 = and i32 %10, 8192
  %12 = icmp ne i32 %11, 0
  br i1 %12, label %13, label %14

13:                                               ; preds = %2
  store i64 0, ptr %3, align 8
  br label %43

14:                                               ; preds = %2
  call void @llvm.lifetime.start.p0(i64 8, ptr %6) #24
  %15 = load ptr, ptr %5, align 8
  %16 = load ptr, ptr %4, align 8
  %17 = getelementptr inbounds nuw %struct._header_field_info, ptr %16, i32 0, i32 0
  %18 = load ptr, ptr %17, align 8
  %19 = call ptr @strstr(ptr noundef %15, ptr noundef %18) #29
  store ptr %19, ptr %6, align 8
  %20 = load ptr, ptr %6, align 8
  %21 = icmp ne ptr %20, null
  br i1 %21, label %23, label %22

22:                                               ; preds = %14
  store i64 0, ptr %3, align 8
  store i32 1, ptr %7, align 4
  br label %42

23:                                               ; preds = %14
  %24 = load ptr, ptr %4, align 8
  %25 = getelementptr inbounds nuw %struct._header_field_info, ptr %24, i32 0, i32 0
  %26 = load ptr, ptr %25, align 8
  %27 = call i64 @strlen(ptr noundef %26) #29
  %28 = load ptr, ptr %6, align 8
  %29 = getelementptr i8, ptr %28, i64 %27
  store ptr %29, ptr %6, align 8
  %30 = load ptr, ptr %6, align 8
  %31 = call i32 @strncmp(ptr noundef %30, ptr noundef @.str.85, i64 noundef 2) #29
  %32 = icmp eq i32 %31, 0
  br i1 %32, label %33, label %36

33:                                               ; preds = %23
  %34 = load ptr, ptr %6, align 8
  %35 = getelementptr i8, ptr %34, i64 2
  store ptr %35, ptr %6, align 8
  br label %36

36:                                               ; preds = %33, %23
  %37 = load ptr, ptr %6, align 8
  %38 = load ptr, ptr %5, align 8
  %39 = ptrtoint ptr %37 to i64
  %40 = ptrtoint ptr %38 to i64
  %41 = sub i64 %39, %40
  store i64 %41, ptr %3, align 8
  store i32 1, ptr %7, align 4
  br label %42

42:                                               ; preds = %36, %22
  call void @llvm.lifetime.end.p0(i64 8, ptr %6) #24
  br label %43

43:                                               ; preds = %42, %13
  %44 = load i64, ptr %3, align 8
  ret i64 %44
}

; Function Attrs: inlinehint nounwind null_pointer_is_valid sspstrong uwtable
define internal zeroext i1 @proto_item_is_hidden(ptr noundef %0) #11 {
  %2 = alloca i1, align 1
  %3 = alloca ptr, align 8
  store ptr %0, ptr %3, align 8
  %4 = load ptr, ptr %3, align 8
  %5 = icmp ne ptr %4, null
  br i1 %5, label %6, label %27

6:                                                ; preds = %1
  %7 = load ptr, ptr %3, align 8
  %8 = getelementptr inbounds nuw %struct._proto_node, ptr %7, i32 0, i32 5
  %9 = load ptr, ptr %8, align 8
  %10 = icmp ne ptr %9, null
  br i1 %10, label %11, label %27

11:                                               ; preds = %6
  %12 = load ptr, ptr %3, align 8
  %13 = getelementptr inbounds nuw %struct._proto_node, ptr %12, i32 0, i32 5
  %14 = load ptr, ptr %13, align 8
  %15 = icmp ne ptr %14, null
  br i1 %15, label %16, label %23

16:                                               ; preds = %11
  %17 = load ptr, ptr %3, align 8
  %18 = getelementptr inbounds nuw %struct._proto_node, ptr %17, i32 0, i32 5
  %19 = load ptr, ptr %18, align 8
  %20 = getelementptr inbounds nuw %struct.field_info, ptr %19, i32 0, i32 6
  %21 = load i32, ptr %20, align 4
  %22 = and i32 %21, 1
  br label %24

23:                                               ; preds = %11
  br label %24

24:                                               ; preds = %23, %16
  %25 = phi i32 [ %22, %16 ], [ 0, %23 ]
  %26 = icmp ne i32 %25, 0
  store i1 %26, ptr %2, align 1
  br label %28

27:                                               ; preds = %6, %1
  store i1 true, ptr %2, align 1
  br label %28

28:                                               ; preds = %27, %24
  %29 = load i1, ptr %2, align 1
  ret i1 %29
}

; Function Attrs: null_pointer_is_valid sspstrong uwtable
define internal void @proto_tree_set_representation(ptr noundef %0, ptr noundef %1, ptr noundef %2) #0 {
  %4 = alloca ptr, align 8
  %5 = alloca ptr, align 8
  %6 = alloca ptr, align 8
  %7 = alloca i64, align 8
  %8 = alloca ptr, align 8
  %9 = alloca ptr, align 8
  store ptr %0, ptr %4, align 8
  store ptr %1, ptr %5, align 8
  store ptr %2, ptr %6, align 8
  call void @llvm.lifetime.start.p0(i64 8, ptr %7) #24
  call void @llvm.lifetime.start.p0(i64 8, ptr %8) #24
  call void @llvm.lifetime.start.p0(i64 8, ptr %9) #24
  %10 = load ptr, ptr %4, align 8
  %11 = getelementptr inbounds nuw %struct._proto_node, ptr %10, i32 0, i32 5
  %12 = load ptr, ptr %11, align 8
  store ptr %12, ptr %9, align 8
  %13 = load ptr, ptr %9, align 8
  %14 = icmp ne ptr %13, null
  br i1 %14, label %15, label %16

15:                                               ; preds = %3
  br label %18

16:                                               ; preds = %3
  call void (ptr, ...) @proto_report_dissector_bug(ptr noundef @.str.62, ptr noundef @.str.1, i32 noundef 6964, ptr noundef @.str.283) #27
  unreachable

17:                                               ; No predecessors!
  br label %18

18:                                               ; preds = %17, %15
  %19 = load ptr, ptr %4, align 8
  %20 = call zeroext i1 @proto_item_is_hidden(ptr noundef %19)
  br i1 %20, label %98, label %21

21:                                               ; preds = %18
  %22 = load ptr, ptr %4, align 8
  %23 = getelementptr inbounds nuw %struct._proto_node, ptr %22, i32 0, i32 6
  %24 = load ptr, ptr %23, align 8
  %25 = getelementptr inbounds nuw %struct.tree_data_t, ptr %24, i32 0, i32 4
  %26 = load ptr, ptr %25, align 8
  %27 = getelementptr inbounds nuw %struct._packet_info, ptr %26, i32 0, i32 51
  %28 = load ptr, ptr %27, align 8
  %29 = call noalias ptr @wmem_alloc(ptr noundef %28, i64 noundef 256) #30
  %30 = load ptr, ptr %9, align 8
  %31 = getelementptr inbounds nuw %struct.field_info, ptr %30, i32 0, i32 7
  store ptr %29, ptr %31, align 8
  %32 = load ptr, ptr %9, align 8
  %33 = getelementptr inbounds nuw %struct.field_info, ptr %32, i32 0, i32 7
  %34 = load ptr, ptr %33, align 8
  %35 = getelementptr inbounds nuw %struct._item_label_t, ptr %34, i32 0, i32 1
  store i64 0, ptr %35, align 8
  %36 = load ptr, ptr %9, align 8
  %37 = getelementptr inbounds nuw %struct.field_info, ptr %36, i32 0, i32 7
  %38 = load ptr, ptr %37, align 8
  %39 = getelementptr inbounds nuw %struct._item_label_t, ptr %38, i32 0, i32 2
  store i64 0, ptr %39, align 8
  %40 = load ptr, ptr %4, align 8
  %41 = getelementptr inbounds nuw %struct._proto_node, ptr %40, i32 0, i32 6
  %42 = load ptr, ptr %41, align 8
  %43 = getelementptr inbounds nuw %struct.tree_data_t, ptr %42, i32 0, i32 4
  %44 = load ptr, ptr %43, align 8
  %45 = getelementptr inbounds nuw %struct._packet_info, ptr %44, i32 0, i32 51
  %46 = load ptr, ptr %45, align 8
  %47 = load ptr, ptr %5, align 8
  %48 = load ptr, ptr %6, align 8
  %49 = call noalias ptr @wmem_strdup_vprintf(ptr noundef %46, ptr noundef %47, ptr noundef %48)
  store ptr %49, ptr %8, align 8
  br label %50

50:                                               ; preds = %21
  br label %51

51:                                               ; preds = %50
  br label %52

52:                                               ; preds = %51
  %53 = load ptr, ptr %9, align 8
  %54 = getelementptr inbounds nuw %struct.field_info, ptr %53, i32 0, i32 0
  %55 = load ptr, ptr %54, align 8
  %56 = load ptr, ptr %8, align 8
  %57 = call i64 @proto_find_value_pos(ptr noundef %55, ptr noundef %56)
  %58 = load ptr, ptr %9, align 8
  %59 = getelementptr inbounds nuw %struct.field_info, ptr %58, i32 0, i32 7
  %60 = load ptr, ptr %59, align 8
  %61 = getelementptr inbounds nuw %struct._item_label_t, ptr %60, i32 0, i32 1
  store i64 %57, ptr %61, align 8
  %62 = load ptr, ptr %9, align 8
  %63 = getelementptr inbounds nuw %struct.field_info, ptr %62, i32 0, i32 7
  %64 = load ptr, ptr %63, align 8
  %65 = getelementptr inbounds nuw %struct._item_label_t, ptr %64, i32 0, i32 0
  %66 = getelementptr inbounds [240 x i8], ptr %65, i64 0, i64 0
  %67 = load ptr, ptr %8, align 8
  %68 = call i64 @ws_label_strcpy(ptr noundef %66, i64 noundef 240, i64 noundef 0, ptr noundef %67, i32 noundef 0)
  store i64 %68, ptr %7, align 8
  %69 = load i64, ptr %7, align 8
  %70 = icmp uge i64 %69, 240
  br i1 %70, label %71, label %81

71:                                               ; preds = %52
  %72 = load ptr, ptr %9, align 8
  %73 = getelementptr inbounds nuw %struct.field_info, ptr %72, i32 0, i32 7
  %74 = load ptr, ptr %73, align 8
  %75 = getelementptr inbounds nuw %struct._item_label_t, ptr %74, i32 0, i32 0
  %76 = getelementptr inbounds [240 x i8], ptr %75, i64 0, i64 0
  %77 = load ptr, ptr %9, align 8
  %78 = getelementptr inbounds nuw %struct.field_info, ptr %77, i32 0, i32 7
  %79 = load ptr, ptr %78, align 8
  %80 = getelementptr inbounds nuw %struct._item_label_t, ptr %79, i32 0, i32 1
  call void @label_mark_truncated(ptr noundef %76, i64 noundef 0, ptr noundef %80)
  br label %81

81:                                               ; preds = %71, %52
  %82 = load ptr, ptr %9, align 8
  %83 = getelementptr inbounds nuw %struct.field_info, ptr %82, i32 0, i32 7
  %84 = load ptr, ptr %83, align 8
  %85 = getelementptr inbounds nuw %struct._item_label_t, ptr %84, i32 0, i32 0
  %86 = getelementptr inbounds [240 x i8], ptr %85, i64 0, i64 0
  %87 = call i64 @strlen(ptr noundef %86) #29
  %88 = load ptr, ptr %9, align 8
  %89 = getelementptr inbounds nuw %struct.field_info, ptr %88, i32 0, i32 7
  %90 = load ptr, ptr %89, align 8
  %91 = getelementptr inbounds nuw %struct._item_label_t, ptr %90, i32 0, i32 1
  %92 = load i64, ptr %91, align 8
  %93 = sub i64 %87, %92
  %94 = load ptr, ptr %9, align 8
  %95 = getelementptr inbounds nuw %struct.field_info, ptr %94, i32 0, i32 7
  %96 = load ptr, ptr %95, align 8
  %97 = getelementptr inbounds nuw %struct._item_label_t, ptr %96, i32 0, i32 2
  store i64 %93, ptr %97, align 8
  br label %98

98:                                               ; preds = %81, %18
  call void @llvm.lifetime.end.p0(i64 8, ptr %9) #24
  call void @llvm.lifetime.end.p0(i64 8, ptr %8) #24
  call void @llvm.lifetime.end.p0(i64 8, ptr %7) #24
  ret void
}