; Function Attrs: null_pointer_is_valid sspstrong uwtable
define internal fastcc void @proto_tree_set_representation(ptr noundef readonly captures(address_is_null) %0, ptr noundef %1, ptr noundef %2) unnamed_addr #0 {
  %4 = getelementptr inbounds nuw i8, ptr %0, i64 40
  %5 = load ptr, ptr %4, align 8
  %.not = icmp eq ptr %5, null
  br i1 %.not, label %6, label %7

6:                                                ; preds = %3
  tail call void (ptr, ...) @proto_report_dissector_bug(ptr noundef nonnull @.str.62, ptr noundef nonnull @.str.1, i32 noundef 6964, ptr noundef nonnull @.str.283) #37
  unreachable

7:                                                ; preds = %3
  %.not.i = icmp eq ptr %0, null
  br i1 %.not.i, label %proto_item_is_hidden.exit.thread, label %proto_item_is_hidden.exit

proto_item_is_hidden.exit:                        ; preds = %7
  %8 = getelementptr inbounds nuw i8, ptr %5, i64 28
  %9 = load i32, ptr %8, align 4
  %10 = and i32 %9, 1
  %.not22 = icmp eq i32 %10, 0
  br i1 %.not22, label %11, label %proto_item_is_hidden.exit.thread

11:                                               ; preds = %proto_item_is_hidden.exit
  %12 = getelementptr inbounds nuw i8, ptr %0, i64 48
  %13 = load ptr, ptr %12, align 8
  %14 = getelementptr inbounds nuw i8, ptr %13, i64 16
  %15 = load ptr, ptr %14, align 8
  %16 = getelementptr inbounds nuw i8, ptr %15, i64 408
  %17 = load ptr, ptr %16, align 8
  %18 = tail call noalias dereferenceable_or_null(256) ptr @wmem_alloc(ptr noundef %17, i64 noundef 256) #42
  %19 = getelementptr inbounds nuw i8, ptr %5, i64 32
  store ptr %18, ptr %19, align 8
  %20 = getelementptr inbounds nuw i8, ptr %18, i64 240
  tail call void @llvm.memset.p0.i64(ptr noundef nonnull align 8 dereferenceable(16) %20, i8 0, i64 16, i1 false)
  %21 = load ptr, ptr %12, align 8
  %22 = getelementptr inbounds nuw i8, ptr %21, i64 16
  %23 = load ptr, ptr %22, align 8
  %24 = getelementptr inbounds nuw i8, ptr %23, i64 408
  %25 = load ptr, ptr %24, align 8
  %26 = tail call noalias ptr @wmem_strdup_vprintf(ptr noundef %25, ptr noundef %1, ptr noundef %2)
  %27 = load ptr, ptr %5, align 8
  %28 = getelementptr inbounds nuw i8, ptr %27, i64 20
  %29 = load i32, ptr %28, align 4
  %30 = and i32 %29, 8192
  %.not.i20 = icmp eq i32 %30, 0
  br i1 %.not.i20, label %31, label %proto_find_value_pos.exit

31:                                               ; preds = %11
  %32 = load ptr, ptr %27, align 8
  %33 = tail call ptr @strstr(ptr noundef %26, ptr noundef %32) #41
  %.not12.i = icmp eq ptr %33, null
  br i1 %.not12.i, label %proto_find_value_pos.exit, label %sub_0.i

sub_0.i:                                          ; preds = %31
  %34 = tail call i64 @strlen(ptr noundef %32) #41
  %35 = getelementptr i8, ptr %33, i64 %34
  %36 = load i8, ptr %35, align 1
  %.not13.i = icmp eq i8 %36, 58
  br i1 %.not13.i, label %sub_1.i, label %.tail.i

sub_1.i:                                          ; preds = %sub_0.i
  %37 = getelementptr inbounds nuw i8, ptr %35, i64 1
  %38 = load i8, ptr %37, align 1
  %39 = icmp eq i8 %38, 32
  %40 = select i1 %39, i64 2, i64 0
  br label %.tail.i

.tail.i:                                          ; preds = %sub_1.i, %sub_0.i
  %spec.select.idx.i = phi i64 [ 0, %sub_0.i ], [ %40, %sub_1.i ]
  %spec.select.i = getelementptr i8, ptr %35, i64 %spec.select.idx.i
  %41 = ptrtoint ptr %spec.select.i to i64
  %42 = ptrtoint ptr %26 to i64
  %43 = sub i64 %41, %42
  br label %proto_find_value_pos.exit

proto_find_value_pos.exit:                        ; preds = %11, %31, %.tail.i
  %.010.i = phi i64 [ 0, %11 ], [ %43, %.tail.i ], [ 0, %31 ]
  %44 = load ptr, ptr %19, align 8
  %45 = getelementptr inbounds nuw i8, ptr %44, i64 240
  store i64 %.010.i, ptr %45, align 8
  %46 = load ptr, ptr %19, align 8
  %47 = tail call i64 @ws_label_strcpy(ptr noundef %46, i64 noundef 240, i64 noundef 0, ptr noundef %26, i32 noundef 0)
  %48 = icmp ugt i64 %47, 239
  br i1 %48, label %49, label %label_mark_truncated.exit

49:                                               ; preds = %proto_find_value_pos.exit
  %50 = load ptr, ptr %19, align 8
  %51 = getelementptr i8, ptr %50, i64 240
  %52 = getelementptr i8, ptr %50, i64 6
  tail call void @llvm.memmove.p0.p0.i64(ptr noundef align 1 dereferenceable(234) %52, ptr noundef align 1 dereferenceable(234) %50, i64 noundef 234, i1 noundef false) #39
  tail call void @llvm.memcpy.p0.p0.i64(ptr noundef align 1 dereferenceable(6) %50, ptr noundef nonnull align 1 dereferenceable(6) @mark_truncated.trunc_str, i64 noundef 6, i1 noundef false) #39
  %53 = tail call ptr @g_utf8_prev_char(ptr noundef %51) #41
  store i8 0, ptr %53, align 1
  %54 = load i64, ptr %51, align 8
  %.not26.i.i = icmp eq i64 %54, 0
  br i1 %.not26.i.i, label %label_mark_truncated.exit, label %55

55:                                               ; preds = %49
  %56 = add i64 %54, 6
  store i64 %56, ptr %51, align 8
  br label %label_mark_truncated.exit

label_mark_truncated.exit:                        ; preds = %55, %49, %proto_find_value_pos.exit
  %57 = load ptr, ptr %19, align 8
  %58 = tail call i64 @strlen(ptr noundef %57) #41
  %59 = getelementptr inbounds nuw i8, ptr %57, i64 240
  %60 = load i64, ptr %59, align 8
  %61 = sub i64 %58, %60
  %62 = getelementptr inbounds nuw i8, ptr %57, i64 248
  store i64 %61, ptr %62, align 8
  br label %proto_item_is_hidden.exit.thread

proto_item_is_hidden.exit.thread:                 ; preds = %7, %label_mark_truncated.exit, %proto_item_is_hidden.exit
  ret void
}